target datalayout = "e-m:e-p270:32:32-p271:32:32-p272:64:64-i64:64-i128:128-f80:128-n8:16:32:64-S128"
target triple = "x86_64-pc-linux-gnu"

; Function Attrs: nounwind uwtable
define internal void @SDL_Convert71To51(ptr noundef %0, ptr noundef %1, i32 noundef %2) #0 {
  %4 = alloca ptr, align 8
  %5 = alloca ptr, align 8
  %6 = alloca i32, align 4
  %7 = alloca i32, align 4
  %8 = alloca float, align 4
  %9 = alloca float, align 4
  store ptr %0, ptr %4, align 8
  store ptr %1, ptr %5, align 8
  store i32 %2, ptr %6, align 4
  call void @llvm.lifetime.start.p0(i64 4, ptr %7) #7
  %10 = load i32, ptr %6, align 4
  store i32 %10, ptr %7, align 4
  br label %11

11:                                               ; preds = %64, %3
  %12 = load i32, ptr %7, align 4
  %13 = icmp ne i32 %12, 0
  br i1 %13, label %14, label %71

14:                                               ; preds = %11
  call void @llvm.lifetime.start.p0(i64 4, ptr %8) #7
  %15 = load ptr, ptr %5, align 8
  %16 = getelementptr inbounds float, ptr %15, i64 6
  %17 = load float, ptr %16, align 4
  store float %17, ptr %8, align 4
  call void @llvm.lifetime.start.p0(i64 4, ptr %9) #7
  %18 = load ptr, ptr %5, align 8
  %19 = getelementptr inbounds float, ptr %18, i64 7
  %20 = load float, ptr %19, align 4
  store float %20, ptr %9, align 4
  %21 = load ptr, ptr %5, align 8
  %22 = getelementptr inbounds float, ptr %21, i64 0
  %23 = load float, ptr %22, align 4
  %24 = load float, ptr %8, align 4
  %25 = fmul float %24, 0x3FC83126E0000000
  %26 = call float @llvm.fmuladd.f32(float %23, float 0x3FE09374C0000000, float %25)
  %27 = load ptr, ptr %4, align 8
  %28 = getelementptr inbounds float, ptr %27, i64 0
  store float %26, ptr %28, align 4
  %29 = load ptr, ptr %5, align 8
  %30 = getelementptr inbounds float, ptr %29, i64 1
  %31 = load float, ptr %30, align 4
  %32 = load float, ptr %9, align 4
  %33 = fmul float %32, 0x3FC83126E0000000
  %34 = call float @llvm.fmuladd.f32(float %31, float 0x3FE09374C0000000, float %33)
  %35 = load ptr, ptr %4, align 8
  %36 = getelementptr inbounds float, ptr %35, i64 1
  store float %34, ptr %36, align 4
  %37 = load ptr, ptr %5, align 8
  %38 = getelementptr inbounds float, ptr %37, i64 2
  %39 = load float, ptr %38, align 4
  %40 = fmul float %39, 0x3FE09374C0000000
  %41 = load ptr, ptr %4, align 8
  %42 = getelementptr inbounds float, ptr %41, i64 2
  store float %40, ptr %42, align 4
  %43 = load ptr, ptr %5, align 8
  %44 = getelementptr inbounds float, ptr %43, i64 3
  %45 = load float, ptr %44, align 4
  %46 = load ptr, ptr %4, align 8
  %47 = getelementptr inbounds float, ptr %46, i64 3
  store float %45, ptr %47, align 4
  %48 = load ptr, ptr %5, align 8
  %49 = getelementptr inbounds float, ptr %48, i64 4
  %50 = load float, ptr %49, align 4
  %51 = load float, ptr %8, align 4
  %52 = fmul float %51, 0x3FDED91680000000
  %53 = call float @llvm.fmuladd.f32(float %50, float 0x3FE09374C0000000, float %52)
  %54 = load ptr, ptr %4, align 8
  %55 = getelementptr inbounds float, ptr %54, i64 4
  store float %53, ptr %55, align 4
  %56 = load ptr, ptr %5, align 8
  %57 = getelementptr inbounds float, ptr %56, i64 5
  %58 = load float, ptr %57, align 4
  %59 = load float, ptr %9, align 4
  %60 = fmul float %59, 0x3FDED91680000000
  %61 = call float @llvm.fmuladd.f32(float %58, float 0x3FE09374C0000000, float %60)
  %62 = load ptr, ptr %4, align 8
  %63 = getelementptr inbounds float, ptr %62, i64 5
  store float %61, ptr %63, align 4
  call void @llvm.lifetime.end.p0(i64 4, ptr %9) #7
  call void @llvm.lifetime.end.p0(i64 4, ptr %8) #7
  br label %64

64:                                               ; preds = %14
  %65 = load i32, ptr %7, align 4
  %66 = add nsw i32 %65, -1
  store i32 %66, ptr %7, align 4
  %67 = load ptr, ptr %5, align 8
  %68 = getelementptr inbounds float, ptr %67, i64 8
  store ptr %68, ptr %5, align 8
  %69 = load ptr, ptr %4, align 8
  %70 = getelementptr inbounds float, ptr %69, i64 6
  store ptr %70, ptr %4, align 8
  br label %11, !llvm.loop !98

71:                                               ; preds = %11
  call void @llvm.lifetime.end.p0(i64 4, ptr %7) #7
  ret void
}