; Function Attrs: nofree norecurse nosync nounwind memory(argmem: readwrite) uwtable
define internal void @SDL_Convert71To51(ptr noundef writeonly captures(none) %0, ptr noundef readonly captures(none) %1, i32 noundef %2) #5 {
  %.not24 = icmp eq i32 %2, 0
  br i1 %.not24, label %._crit_edge, label %.lr.ph

.lr.ph:                                           ; preds = %3, %.lr.ph
  %.027 = phi ptr [ %35, %.lr.ph ], [ %0, %3 ]
  %.02226 = phi ptr [ %34, %.lr.ph ], [ %1, %3 ]
  %.02325 = phi i32 [ %33, %.lr.ph ], [ %2, %3 ]
  %4 = getelementptr inbounds nuw i8, ptr %.02226, i64 24
  %5 = load float, ptr %4, align 4
  %6 = getelementptr inbounds nuw i8, ptr %.02226, i64 28
  %7 = load float, ptr %6, align 4
  %8 = load float, ptr %.02226, align 4
  %9 = fmul float %5, 0x3FC83126E0000000
  %10 = tail call float @llvm.fmuladd.f32(float %8, float 0x3FE09374C0000000, float %9)
  store float %10, ptr %.027, align 4
  %11 = getelementptr inbounds nuw i8, ptr %.02226, i64 4
  %12 = load float, ptr %11, align 4
  %13 = fmul float %7, 0x3FC83126E0000000
  %14 = tail call float @llvm.fmuladd.f32(float %12, float 0x3FE09374C0000000, float %13)
  %15 = getelementptr inbounds nuw i8, ptr %.027, i64 4
  store float %14, ptr %15, align 4
  %16 = getelementptr inbounds nuw i8, ptr %.02226, i64 8
  %17 = load float, ptr %16, align 4
  %18 = fmul float %17, 0x3FE09374C0000000
  %19 = getelementptr inbounds nuw i8, ptr %.027, i64 8
  store float %18, ptr %19, align 4
  %20 = getelementptr inbounds nuw i8, ptr %.02226, i64 12
  %21 = load float, ptr %20, align 4
  %22 = getelementptr inbounds nuw i8, ptr %.027, i64 12
  store float %21, ptr %22, align 4
  %23 = getelementptr inbounds nuw i8, ptr %.02226, i64 16
  %24 = load float, ptr %23, align 4
  %25 = fmul float %5, 0x3FDED91680000000
  %26 = tail call float @llvm.fmuladd.f32(float %24, float 0x3FE09374C0000000, float %25)
  %27 = getelementptr inbounds nuw i8, ptr %.027, i64 16
  store float %26, ptr %27, align 4
  %28 = getelementptr inbounds nuw i8, ptr %.02226, i64 20
  %29 = load float, ptr %28, align 4
  %30 = fmul float %7, 0x3FDED91680000000
  %31 = tail call float @llvm.fmuladd.f32(float %29, float 0x3FE09374C0000000, float %30)
  %32 = getelementptr inbounds nuw i8, ptr %.027, i64 20
  store float %31, ptr %32, align 4
  %33 = add nsw i32 %.02325, -1
  %34 = getelementptr inbounds nuw i8, ptr %.02226, i64 32
  %35 = getelementptr inbounds nuw i8, ptr %.027, i64 24
  %.not = icmp eq i32 %33, 0
  br i1 %.not, label %._crit_edge, label %.lr.ph, !llvm.loop !104

._crit_edge:                                      ; preds = %.lr.ph, %3
  ret void
}